; Function Attrs: mustprogress nounwind uwtable
define dso_local noundef i32 @_ZN4node4quic13SessionTicket7AppData7ExtractEP6ssl_st(ptr noundef %ssl) local_unnamed_addr #4 align 2 {
entry:
  %app_data = alloca %"class.node::quic::SessionTicket::AppData", align 8
  %call.i = tail call ptr @SSL_get_ex_data(ptr noundef %ssl, i32 noundef 0) #17
  %cmp.not.i = icmp eq ptr %call.i, null
  br i1 %cmp.not.i, label %return, label %land.lhs.true.i

land.lhs.true.i:                                  ; preds = %entry
  %user_data.i = getelementptr inbounds i8, ptr %call.i, i64 8
  %0 = load ptr, ptr %user_data.i, align 8
  %cmp1.not.i = icmp eq ptr %0, null
  br i1 %cmp1.not.i, label %return, label %if.then

if.then:                                          ; preds = %land.lhs.true.i
  store i8 0, ptr %app_data, align 8
  %ssl_.i = getelementptr inbounds i8, ptr %app_data, i64 8
  store ptr %ssl, ptr %ssl_.i, align 8
  %vtable = load ptr, ptr %0, align 8
  %vfn = getelementptr inbounds i8, ptr %vtable, i64 8
  %1 = load ptr, ptr %vfn, align 8
  %call1 = call noundef i32 %1(ptr noundef nonnull align 8 dereferenceable(8) %0, ptr noundef nonnull align 8 dereferenceable(16) %app_data, i32 noundef 0) #17
  br label %return

return:                                           ; preds = %land.lhs.true.i, %entry, %if.then
  %retval.0 = phi i32 [ %call1, %if.then ], [ 1, %entry ], [ 1, %land.lhs.true.i ]
  ret i32 %retval.0
}